; Function Attrs: mustprogress uwtable
define void @_ZN5faiss3lsq10IcmEncoder15set_binary_termEv(ptr noundef nonnull align 8 dereferenceable(48) %0) unnamed_addr #1 align 2 personality ptr @__gxx_personality_v0 {
  %2 = getelementptr inbounds i8, ptr %0, i64 40
  %3 = load ptr, ptr %2, align 8
  %4 = getelementptr inbounds i8, ptr %3, i64 24
  %5 = load i64, ptr %4, align 8
  %6 = getelementptr inbounds i8, ptr %3, i64 312
  %7 = load i64, ptr %6, align 8
  %8 = getelementptr inbounds i8, ptr %0, i64 8
  %9 = mul i64 %7, %5
  %10 = mul i64 %9, %9
  %11 = getelementptr inbounds i8, ptr %0, i64 16
  %12 = load ptr, ptr %11, align 8
  %13 = load ptr, ptr %8, align 8
  %14 = ptrtoint ptr %12 to i64
  %15 = ptrtoint ptr %13 to i64
  %16 = sub i64 %14, %15
  %17 = ashr exact i64 %16, 2
  %18 = icmp ult i64 %17, %10
  br i1 %18, label %19, label %21

19:                                               ; preds = %1
  %20 = sub i64 %10, %17
  tail call void @_ZNSt6vectorIfSaIfEE17_M_default_appendEm(ptr noundef nonnull align 8 dereferenceable(24) %8, i64 noundef %20)
  %.pre = load ptr, ptr %2, align 8
  %.pre4 = load ptr, ptr %8, align 8
  br label %_ZNSt6vectorIfSaIfEE6resizeEm.exit

21:                                               ; preds = %1
  %22 = icmp ugt i64 %17, %10
  br i1 %22, label %23, label %_ZNSt6vectorIfSaIfEE6resizeEm.exit

23:                                               ; preds = %21
  %24 = getelementptr inbounds float, ptr %13, i64 %10
  %.not.i.i = icmp eq ptr %12, %24
  br i1 %.not.i.i, label %_ZNSt6vectorIfSaIfEE6resizeEm.exit, label %25

25:                                               ; preds = %23
  store ptr %24, ptr %11, align 8
  br label %_ZNSt6vectorIfSaIfEE6resizeEm.exit

_ZNSt6vectorIfSaIfEE6resizeEm.exit:               ; preds = %19, %21, %23, %25
  %26 = phi ptr [ %.pre4, %19 ], [ %13, %21 ], [ %13, %23 ], [ %13, %25 ]
  %27 = phi ptr [ %.pre, %19 ], [ %3, %21 ], [ %3, %23 ], [ %3, %25 ]
  tail call void @_ZNK5faiss20LocalSearchQuantizer20compute_binary_termsEPf(ptr noundef nonnull align 8 dereferenceable(393) %27, ptr noundef %26)
  ret void
}